target datalayout = "e-m:e-p270:32:32-p271:32:32-p272:64:64-i64:64-i128:128-f80:128-n8:16:32:64-S128"
target triple = "x86_64-pc-linux-gnu"

%struct.H5O_token_t = type { [16 x i8] }
%struct.H5VL_loc_params_t = type { i32, i32, %union.anon }
%union.anon = type { %struct.H5VL_loc_by_idx }
%struct.H5VL_loc_by_idx = type { ptr, i32, i32, i64, i64 }
%struct.H5VL_object_t = type { ptr, ptr, i64 }
%struct.H5VL_loc_by_token = type { ptr }

@H5_libinit_g = external global i8, align 1
@H5_libterm_g = external global i8, align 1
@.str = private unnamed_addr constant [97 x i8] c"generated/home/dtcxzyw/WorkSpace/Projects/compilers/llvm-opt-benchmark/bench/hdf5/hdf5/src/H5O.c\00", align 1
@H5E_FUNC_g = external global i64, align 8
@H5E_CANTINIT_g = external global i64, align 8
@.str.1 = private unnamed_addr constant [30 x i8] c"library initialization failed\00", align 1
@H5E_CANTSET_g = external global i64, align 8
@.str.2 = private unnamed_addr constant [22 x i8] c"can't set API context\00", align 1
@H5E_OHDR_g = external global i64, align 8
@H5E_CANTOPENOBJ_g = external global i64, align 8
@__func__.H5Oopen_by_token = private unnamed_addr constant [17 x i8] c"H5Oopen_by_token\00", align 1
@H5O_TOKEN_UNDEF_g = external constant %struct.H5O_token_t, align 1
@H5E_ARGS_g = external global i64, align 8
@H5E_BADVALUE_g = external global i64, align 8
@.str.20 = private unnamed_addr constant [27 x i8] c"can't open H5O_TOKEN_UNDEF\00", align 1
@H5E_BADTYPE_g = external global i64, align 8
@.str.21 = private unnamed_addr constant [28 x i8] c"invalid location identifier\00", align 1
@H5P_LST_DATASET_XFER_ID_g = external global i64, align 8
@.str.22 = private unnamed_addr constant [22 x i8] c"unable to open object\00", align 1
@H5E_CANTREGISTER_g = external global i64, align 8
@.str.23 = private unnamed_addr constant [33 x i8] c"unable to register object handle\00", align 1

; Function Attrs: nounwind uwtable
define i64 @H5Oopen_by_token(i64 noundef %0, i64 %1, i64 %2) #0 {
  %4 = alloca %struct.H5O_token_t, align 1
  %5 = alloca i64, align 8
  %6 = alloca ptr, align 8
  %7 = alloca i32, align 4
  %8 = alloca i32, align 4
  %9 = alloca ptr, align 8
  %10 = alloca %struct.H5VL_loc_params_t, align 8
  %11 = alloca i64, align 8
  %12 = alloca i8, align 1
  %13 = alloca i8, align 1
  %14 = getelementptr inbounds { i64, i64 }, ptr %4, i32 0, i32 0
  store i64 %1, ptr %14, align 1
  %15 = getelementptr inbounds { i64, i64 }, ptr %4, i32 0, i32 1
  store i64 %2, ptr %15, align 1
  store i64 %0, ptr %5, align 8
  store i32 -1, ptr %7, align 4
  store ptr null, ptr %9, align 8
  store i64 -1, ptr %11, align 8
  store i8 0, ptr %12, align 1
  store i8 0, ptr %13, align 1
  %16 = load i8, ptr @H5_libinit_g, align 1
  %17 = trunc i8 %16 to i1
  br i1 %17, label %22, label %18

18:                                               ; preds = %3
  %19 = load i8, ptr @H5_libterm_g, align 1
  %20 = trunc i8 %19 to i1
  %21 = xor i1 %20, true
  br label %22

22:                                               ; preds = %18, %3
  %23 = phi i1 [ false, %3 ], [ %21, %18 ]
  %24 = xor i1 %23, true
  %25 = xor i1 %24, true
  %26 = zext i1 %25 to i32
  %27 = sext i32 %26 to i64
  %28 = icmp ne i64 %27, 0
  br i1 %28, label %29, label %53

29:                                               ; preds = %22
  %30 = call i32 @H5_init_library()
  %31 = icmp slt i32 %30, 0
  %32 = xor i1 %31, true
  %33 = xor i1 %32, true
  %34 = zext i1 %33 to i32
  %35 = sext i32 %34 to i64
  %36 = icmp ne i64 %35, 0
  br i1 %36, label %37, label %52

37:                                               ; preds = %29
  br label %38

38:                                               ; preds = %37
  br label %39

39:                                               ; preds = %38
  br label %40

40:                                               ; preds = %39
  %41 = load i64, ptr @H5E_FUNC_g, align 8
  %42 = load i64, ptr @H5E_CANTINIT_g, align 8
  %43 = call i32 (ptr, ptr, i32, i64, i64, ptr, ...) @H5E_printf_stack(ptr noundef @.str, ptr noundef @__func__.H5Oopen_by_token, i32 noundef 355, i64 noundef %41, i64 noundef %42, ptr noundef @.str.1)
  br label %44

44:                                               ; preds = %40
  store i8 1, ptr %13, align 1
  %45 = load i8, ptr %13, align 1
  %46 = trunc i8 %45 to i1
  %47 = zext i1 %46 to i8
  store i8 %47, ptr %13, align 1
  br label %48

48:                                               ; preds = %44
  br label %49

49:                                               ; preds = %48
  store i64 -1, ptr %11, align 8
  br label %183

50:                                               ; No predecessors!
  br label %51

51:                                               ; preds = %50
  br label %52

52:                                               ; preds = %51, %29
  br label %53

53:                                               ; preds = %52, %22
  %54 = call i32 @H5CX_push()
  %55 = icmp slt i32 %54, 0
  %56 = xor i1 %55, true
  %57 = xor i1 %56, true
  %58 = zext i1 %57 to i32
  %59 = sext i32 %58 to i64
  %60 = icmp ne i64 %59, 0
  br i1 %60, label %61, label %76

61:                                               ; preds = %53
  br label %62

62:                                               ; preds = %61
  br label %63

63:                                               ; preds = %62
  br label %64

64:                                               ; preds = %63
  %65 = load i64, ptr @H5E_FUNC_g, align 8
  %66 = load i64, ptr @H5E_CANTSET_g, align 8
  %67 = call i32 (ptr, ptr, i32, i64, i64, ptr, ...) @H5E_printf_stack(ptr noundef @.str, ptr noundef @__func__.H5Oopen_by_token, i32 noundef 355, i64 noundef %65, i64 noundef %66, ptr noundef @.str.2)
  br label %68

68:                                               ; preds = %64
  store i8 1, ptr %13, align 1
  %69 = load i8, ptr %13, align 1
  %70 = trunc i8 %69 to i1
  %71 = zext i1 %70 to i8
  store i8 %71, ptr %13, align 1
  br label %72

72:                                               ; preds = %68
  br label %73

73:                                               ; preds = %72
  store i64 -1, ptr %11, align 8
  br label %183

74:                                               ; No predecessors!
  br label %75

75:                                               ; preds = %74
  br label %77

76:                                               ; preds = %53
  store i8 1, ptr %12, align 1
  br label %77

77:                                               ; preds = %76, %75
  %78 = call i32 @H5E_clear_stack()
  %79 = call i32 @memcmp(ptr noundef %4, ptr noundef @H5O_TOKEN_UNDEF_g, i64 noundef 16) #3
  %80 = icmp ne i32 %79, 0
  br i1 %80, label %96, label %81

81:                                               ; preds = %77
  br label %82

82:                                               ; preds = %81
  br label %83

83:                                               ; preds = %82
  br label %84

84:                                               ; preds = %83
  %85 = load i64, ptr @H5E_ARGS_g, align 8
  %86 = load i64, ptr @H5E_BADVALUE_g, align 8
  %87 = call i32 (ptr, ptr, i32, i64, i64, ptr, ...) @H5E_printf_stack(ptr noundef @.str, ptr noundef @__func__.H5Oopen_by_token, i32 noundef 359, i64 noundef %85, i64 noundef %86, ptr noundef @.str.20)
  br label %88

88:                                               ; preds = %84
  store i8 1, ptr %13, align 1
  %89 = load i8, ptr %13, align 1
  %90 = trunc i8 %89 to i1
  %91 = zext i1 %90 to i8
  store i8 %91, ptr %13, align 1
  br label %92

92:                                               ; preds = %88
  br label %93

93:                                               ; preds = %92
  store i64 -1, ptr %11, align 8
  br label %183

94:                                               ; No predecessors!
  br label %95

95:                                               ; preds = %94
  br label %96

96:                                               ; preds = %95, %77
  %97 = load i64, ptr %5, align 8
  %98 = call ptr @H5I_object(i64 noundef %97)
  store ptr %98, ptr %6, align 8
  %99 = icmp eq ptr null, %98
  br i1 %99, label %100, label %115

100:                                              ; preds = %96
  br label %101

101:                                              ; preds = %100
  br label %102

102:                                              ; preds = %101
  br label %103

103:                                              ; preds = %102
  %104 = load i64, ptr @H5E_ARGS_g, align 8
  %105 = load i64, ptr @H5E_BADTYPE_g, align 8
  %106 = call i32 (ptr, ptr, i32, i64, i64, ptr, ...) @H5E_printf_stack(ptr noundef @.str, ptr noundef @__func__.H5Oopen_by_token, i32 noundef 363, i64 noundef %104, i64 noundef %105, ptr noundef @.str.21)
  br label %107

107:                                              ; preds = %103
  store i8 1, ptr %13, align 1
  %108 = load i8, ptr %13, align 1
  %109 = trunc i8 %108 to i1
  %110 = zext i1 %109 to i8
  store i8 %110, ptr %13, align 1
  br label %111

111:                                              ; preds = %107
  br label %112

112:                                              ; preds = %111
  store i64 -1, ptr %11, align 8
  br label %183

113:                                              ; No predecessors!
  br label %114

114:                                              ; preds = %113
  br label %115

115:                                              ; preds = %114, %96
  %116 = load i64, ptr %5, align 8
  %117 = call i32 @H5I_get_type(i64 noundef %116)
  store i32 %117, ptr %7, align 4
  %118 = icmp slt i32 %117, 0
  br i1 %118, label %119, label %134

119:                                              ; preds = %115
  br label %120

120:                                              ; preds = %119
  br label %121

121:                                              ; preds = %120
  br label %122

122:                                              ; preds = %121
  %123 = load i64, ptr @H5E_ARGS_g, align 8
  %124 = load i64, ptr @H5E_BADTYPE_g, align 8
  %125 = call i32 (ptr, ptr, i32, i64, i64, ptr, ...) @H5E_printf_stack(ptr noundef @.str, ptr noundef @__func__.H5Oopen_by_token, i32 noundef 367, i64 noundef %123, i64 noundef %124, ptr noundef @.str.21)
  br label %126

126:                                              ; preds = %122
  store i8 1, ptr %13, align 1
  %127 = load i8, ptr %13, align 1
  %128 = trunc i8 %127 to i1
  %129 = zext i1 %128 to i8
  store i8 %129, ptr %13, align 1
  br label %130

130:                                              ; preds = %126
  br label %131

131:                                              ; preds = %130
  store i64 -1, ptr %11, align 8
  br label %183

132:                                              ; No predecessors!
  br label %133

133:                                              ; preds = %132
  br label %134

134:                                              ; preds = %133, %115
  %135 = getelementptr inbounds %struct.H5VL_loc_params_t, ptr %10, i32 0, i32 1
  store i32 3, ptr %135, align 4
  %136 = getelementptr inbounds %struct.H5VL_loc_params_t, ptr %10, i32 0, i32 2
  %137 = getelementptr inbounds %struct.H5VL_loc_by_token, ptr %136, i32 0, i32 0
  store ptr %4, ptr %137, align 8
  %138 = load i32, ptr %7, align 4
  %139 = getelementptr inbounds %struct.H5VL_loc_params_t, ptr %10, i32 0, i32 0
  store i32 %138, ptr %139, align 8
  %140 = load ptr, ptr %6, align 8
  %141 = load i64, ptr @H5P_LST_DATASET_XFER_ID_g, align 8
  %142 = call ptr @H5VL_object_open(ptr noundef %140, ptr noundef %10, ptr noundef %8, i64 noundef %141, ptr noundef null)
  store ptr %142, ptr %9, align 8
  %143 = icmp eq ptr null, %142
  br i1 %143, label %144, label %159

144:                                              ; preds = %134
  br label %145

145:                                              ; preds = %144
  br label %146

146:                                              ; preds = %145
  br label %147

147:                                              ; preds = %146
  %148 = load i64, ptr @H5E_OHDR_g, align 8
  %149 = load i64, ptr @H5E_CANTOPENOBJ_g, align 8
  %150 = call i32 (ptr, ptr, i32, i64, i64, ptr, ...) @H5E_printf_stack(ptr noundef @.str, ptr noundef @__func__.H5Oopen_by_token, i32 noundef 376, i64 noundef %148, i64 noundef %149, ptr noundef @.str.22)
  br label %151

151:                                              ; preds = %147
  store i8 1, ptr %13, align 1
  %152 = load i8, ptr %13, align 1
  %153 = trunc i8 %152 to i1
  %154 = zext i1 %153 to i8
  store i8 %154, ptr %13, align 1
  br label %155

155:                                              ; preds = %151
  br label %156

156:                                              ; preds = %155
  store i64 -1, ptr %11, align 8
  br label %183

157:                                              ; No predecessors!
  br label %158

158:                                              ; preds = %157
  br label %159

159:                                              ; preds = %158, %134
  %160 = load i32, ptr %8, align 4
  %161 = load ptr, ptr %9, align 8
  %162 = load ptr, ptr %6, align 8
  %163 = getelementptr inbounds %struct.H5VL_object_t, ptr %162, i32 0, i32 1
  %164 = load ptr, ptr %163, align 8
  %165 = call i64 @H5VL_register(i32 noundef %160, ptr noundef %161, ptr noundef %164, i1 noundef zeroext true)
  store i64 %165, ptr %11, align 8
  %166 = icmp slt i64 %165, 0
  br i1 %166, label %167, label %182

167:                                              ; preds = %159
  br label %168

168:                                              ; preds = %167
  br label %169

169:                                              ; preds = %168
  br label %170

170:                                              ; preds = %169
  %171 = load i64, ptr @H5E_OHDR_g, align 8
  %172 = load i64, ptr @H5E_CANTREGISTER_g, align 8
  %173 = call i32 (ptr, ptr, i32, i64, i64, ptr, ...) @H5E_printf_stack(ptr noundef @.str, ptr noundef @__func__.H5Oopen_by_token, i32 noundef 380, i64 noundef %171, i64 noundef %172, ptr noundef @.str.23)
  br label %174

174:                                              ; preds = %170
  store i8 1, ptr %13, align 1
  %175 = load i8, ptr %13, align 1
  %176 = trunc i8 %175 to i1
  %177 = zext i1 %176 to i8
  store i8 %177, ptr %13, align 1
  br label %178

178:                                              ; preds = %174
  br label %179

179:                                              ; preds = %178
  store i64 -1, ptr %11, align 8
  br label %183

180:                                              ; No predecessors!
  br label %181

181:                                              ; preds = %180
  br label %182

182:                                              ; preds = %181, %159
  br label %183

183:                                              ; preds = %182, %179, %156, %131, %112, %93, %73, %49
  %184 = load i8, ptr %12, align 1
  %185 = trunc i8 %184 to i1
  %186 = xor i1 %185, true
  %187 = xor i1 %186, true
  %188 = zext i1 %187 to i32
  %189 = sext i32 %188 to i64
  %190 = icmp ne i64 %189, 0
  br i1 %190, label %191, label %193

191:                                              ; preds = %183
  %192 = call i32 @H5CX_pop(i1 noundef zeroext true)
  store i8 0, ptr %12, align 1
  br label %193

193:                                              ; preds = %191, %183
  %194 = load i8, ptr %13, align 1
  %195 = trunc i8 %194 to i1
  %196 = xor i1 %195, true
  %197 = xor i1 %196, true
  %198 = zext i1 %197 to i32
  %199 = sext i32 %198 to i64
  %200 = icmp ne i64 %199, 0
  br i1 %200, label %201, label %203

201:                                              ; preds = %193
  %202 = call i32 @H5E_dump_api_stack()
  br label %203

203:                                              ; preds = %201, %193
  %204 = load i64, ptr %11, align 8
  ret i64 %204
}