; Function Attrs: nounwind uwtable
define range(i64 -1, -9223372036854775808) i64 @H5Oopen_by_token(i64 noundef %0, i64 %1, i64 %2) local_unnamed_addr #0 {
  %4 = alloca %struct.H5O_token_t, align 8
  %5 = alloca i32, align 4
  %6 = alloca %struct.H5VL_loc_params_t, align 8
  store i64 %1, ptr %4, align 8
  %7 = getelementptr inbounds i8, ptr %4, i64 8
  store i64 %2, ptr %7, align 8
  %8 = load i8, ptr @H5_libinit_g, align 1
  %9 = trunc i8 %8 to i1
  %10 = load i8, ptr @H5_libterm_g, align 1
  %11 = trunc i8 %10 to i1
  %12 = select i1 %9, i1 true, i1 %11
  br i1 %12, label %20, label %13

13:                                               ; preds = %3
  %14 = tail call i32 @H5_init_library() #4
  %15 = icmp slt i32 %14, 0
  br i1 %15, label %16, label %20

16:                                               ; preds = %13
  %17 = load i64, ptr @H5E_FUNC_g, align 8
  %18 = load i64, ptr @H5E_CANTINIT_g, align 8
  %19 = tail call i32 (ptr, ptr, i32, i64, i64, ptr, ...) @H5E_printf_stack(ptr noundef nonnull @.str, ptr noundef nonnull @__func__.H5Oopen_by_token, i32 noundef 355, i64 noundef %17, i64 noundef %18, ptr noundef nonnull @.str.1) #4
  br label %.thread29

20:                                               ; preds = %13, %3
  %21 = tail call i32 @H5CX_push() #4
  %22 = icmp slt i32 %21, 0
  br i1 %22, label %23, label %27

23:                                               ; preds = %20
  %24 = load i64, ptr @H5E_FUNC_g, align 8
  %25 = load i64, ptr @H5E_CANTSET_g, align 8
  %26 = tail call i32 (ptr, ptr, i32, i64, i64, ptr, ...) @H5E_printf_stack(ptr noundef nonnull @.str, ptr noundef nonnull @__func__.H5Oopen_by_token, i32 noundef 355, i64 noundef %24, i64 noundef %25, ptr noundef nonnull @.str.2) #4
  br label %.thread29

27:                                               ; preds = %20
  %28 = tail call i32 @H5E_clear_stack() #4
  %bcmp = call i32 @bcmp(ptr noundef nonnull dereferenceable(16) %4, ptr noundef nonnull dereferenceable(16) @H5O_TOKEN_UNDEF_g, i64 16)
  %.not = icmp eq i32 %bcmp, 0
  br i1 %.not, label %29, label %33

29:                                               ; preds = %27
  %30 = load i64, ptr @H5E_ARGS_g, align 8
  %31 = load i64, ptr @H5E_BADVALUE_g, align 8
  %32 = tail call i32 (ptr, ptr, i32, i64, i64, ptr, ...) @H5E_printf_stack(ptr noundef nonnull @.str, ptr noundef nonnull @__func__.H5Oopen_by_token, i32 noundef 359, i64 noundef %30, i64 noundef %31, ptr noundef nonnull @.str.20) #4
  br label %.thread35

33:                                               ; preds = %27
  %34 = tail call ptr @H5I_object(i64 noundef %0) #4
  %35 = icmp eq ptr %34, null
  br i1 %35, label %36, label %40

36:                                               ; preds = %33
  %37 = load i64, ptr @H5E_ARGS_g, align 8
  %38 = load i64, ptr @H5E_BADTYPE_g, align 8
  %39 = tail call i32 (ptr, ptr, i32, i64, i64, ptr, ...) @H5E_printf_stack(ptr noundef nonnull @.str, ptr noundef nonnull @__func__.H5Oopen_by_token, i32 noundef 363, i64 noundef %37, i64 noundef %38, ptr noundef nonnull @.str.21) #4
  br label %.thread35

40:                                               ; preds = %33
  %41 = tail call i32 @H5I_get_type(i64 noundef %0) #4
  %42 = icmp slt i32 %41, 0
  br i1 %42, label %43, label %47

43:                                               ; preds = %40
  %44 = load i64, ptr @H5E_ARGS_g, align 8
  %45 = load i64, ptr @H5E_BADTYPE_g, align 8
  %46 = tail call i32 (ptr, ptr, i32, i64, i64, ptr, ...) @H5E_printf_stack(ptr noundef nonnull @.str, ptr noundef nonnull @__func__.H5Oopen_by_token, i32 noundef 367, i64 noundef %44, i64 noundef %45, ptr noundef nonnull @.str.21) #4
  br label %.thread35

47:                                               ; preds = %40
  %48 = getelementptr inbounds i8, ptr %6, i64 4
  store i32 3, ptr %48, align 4
  %49 = getelementptr inbounds i8, ptr %6, i64 8
  store ptr %4, ptr %49, align 8
  store i32 %41, ptr %6, align 8
  %50 = load i64, ptr @H5P_LST_DATASET_XFER_ID_g, align 8
  %51 = call ptr @H5VL_object_open(ptr noundef nonnull %34, ptr noundef nonnull %6, ptr noundef nonnull %5, i64 noundef %50, ptr noundef null) #4
  %52 = icmp eq ptr %51, null
  br i1 %52, label %53, label %57

53:                                               ; preds = %47
  %54 = load i64, ptr @H5E_OHDR_g, align 8
  %55 = load i64, ptr @H5E_CANTOPENOBJ_g, align 8
  %56 = call i32 (ptr, ptr, i32, i64, i64, ptr, ...) @H5E_printf_stack(ptr noundef nonnull @.str, ptr noundef nonnull @__func__.H5Oopen_by_token, i32 noundef 376, i64 noundef %54, i64 noundef %55, ptr noundef nonnull @.str.22) #4
  br label %.thread35

57:                                               ; preds = %47
  %58 = load i32, ptr %5, align 4
  %59 = getelementptr inbounds i8, ptr %34, i64 8
  %60 = load ptr, ptr %59, align 8
  %61 = call i64 @H5VL_register(i32 noundef %58, ptr noundef nonnull %51, ptr noundef %60, i1 noundef zeroext true) #4
  %62 = icmp slt i64 %61, 0
  br i1 %62, label %63, label %68

63:                                               ; preds = %57
  %64 = load i64, ptr @H5E_OHDR_g, align 8
  %65 = load i64, ptr @H5E_CANTREGISTER_g, align 8
  %66 = call i32 (ptr, ptr, i32, i64, i64, ptr, ...) @H5E_printf_stack(ptr noundef nonnull @.str, ptr noundef nonnull @__func__.H5Oopen_by_token, i32 noundef 380, i64 noundef %64, i64 noundef %65, ptr noundef nonnull @.str.23) #4
  br label %.thread35

.thread35:                                        ; preds = %29, %63, %53, %43, %36
  %67 = call i32 @H5CX_pop(i1 noundef zeroext true) #4
  br label %.thread29

68:                                               ; preds = %57
  %69 = call i32 @H5CX_pop(i1 noundef zeroext true) #4
  br label %71

.thread29:                                        ; preds = %23, %16, %.thread35
  %70 = call i32 @H5E_dump_api_stack() #4
  br label %71

71:                                               ; preds = %68, %.thread29
  %.0162432 = phi i64 [ -1, %.thread29 ], [ %61, %68 ]
  ret i64 %.0162432
}